; Function Attrs: mustprogress nofree norecurse nosync nounwind memory(argmem: readwrite) uwtable
define internal void @_ZN12_GLOBAL__N_113hlineResizeCnItNS_13ufixedpoint32ELi2ELb1ELi1EEEvPT_iPiPT0_S6_iii(ptr noundef readonly captures(none) %0, i32 %1, ptr noundef readonly captures(none) %2, ptr noundef readonly captures(none) %3, ptr noundef writeonly captures(none) %4, i32 noundef %5, i32 noundef %6, i32 noundef %7) #17 {
  %9 = load i16, ptr %0, align 2, !tbaa !70
  %10 = zext i16 %9 to i32
  %11 = shl nuw i32 %10, 16
  %12 = icmp sgt i32 %5, 0
  br i1 %12, label %.lr.ph, label %.preheader

.preheader:                                       ; preds = %.lr.ph, %8
  %.028.lcssa = phi ptr [ %4, %8 ], [ %15, %.lr.ph ]
  %.026.lcssa = phi i32 [ 0, %8 ], [ %5, %.lr.ph ]
  %.0.lcssa = phi ptr [ %3, %8 ], [ %17, %.lr.ph ]
  %13 = icmp slt i32 %.026.lcssa, %6
  br i1 %13, label %.lr.ph45.preheader, label %._crit_edge

.lr.ph45.preheader:                               ; preds = %.preheader
  %14 = zext nneg i32 %.026.lcssa to i64
  %wide.trip.count = zext nneg i32 %6 to i64
  br label %.lr.ph45

.lr.ph:                                           ; preds = %8, %.lr.ph
  %.039 = phi ptr [ %17, %.lr.ph ], [ %3, %8 ]
  %.02638 = phi i32 [ %16, %.lr.ph ], [ 0, %8 ]
  %.02837 = phi ptr [ %15, %.lr.ph ], [ %4, %8 ]
  %15 = getelementptr inbounds nuw i8, ptr %.02837, i64 4
  store i32 %11, ptr %.02837, align 4, !tbaa !1099
  %16 = add nuw nsw i32 %.02638, 1
  %17 = getelementptr inbounds nuw i8, ptr %.039, i64 8
  %exitcond.not = icmp eq i32 %16, %5
  br i1 %exitcond.not, label %.preheader, label %.lr.ph, !llvm.loop !1101

.lr.ph45:                                         ; preds = %.lr.ph45.preheader, %.lr.ph45
  %indvars.iv = phi i64 [ %14, %.lr.ph45.preheader ], [ %indvars.iv.next, %.lr.ph45 ]
  %.144 = phi ptr [ %.0.lcssa, %.lr.ph45.preheader ], [ %38, %.lr.ph45 ]
  %.12942 = phi ptr [ %.028.lcssa, %.lr.ph45.preheader ], [ %37, %.lr.ph45 ]
  %18 = getelementptr inbounds nuw i32, ptr %2, i64 %indvars.iv
  %19 = load i32, ptr %18, align 4, !tbaa !16
  %20 = sext i32 %19 to i64
  %21 = getelementptr inbounds i16, ptr %0, i64 %20
  %22 = load i32, ptr %.144, align 4, !tbaa !1099, !noalias !1102
  %23 = zext i32 %22 to i64
  %24 = load i16, ptr %21, align 2, !tbaa !70, !noalias !1102
  %25 = zext i16 %24 to i64
  %26 = mul nuw nsw i64 %25, %23
  %.sroa.speculated.i = tail call i64 @llvm.umin.i64(i64 range(i64 0, 281470681677826) %26, i64 4294967295)
  %27 = trunc nuw i64 %.sroa.speculated.i to i32
  %28 = getelementptr inbounds nuw i8, ptr %.144, i64 4
  %29 = getelementptr inbounds nuw i8, ptr %21, i64 2
  %30 = load i32, ptr %28, align 4, !tbaa !1099, !noalias !1105
  %31 = zext i32 %30 to i64
  %32 = load i16, ptr %29, align 2, !tbaa !70, !noalias !1105
  %33 = zext i16 %32 to i64
  %34 = mul nuw nsw i64 %33, %31
  %.sroa.speculated.i32 = tail call i64 @llvm.umin.i64(i64 range(i64 0, 281470681677826) %34, i64 4294967295)
  %35 = trunc nuw i64 %.sroa.speculated.i32 to i32
  %36 = tail call i32 @llvm.uadd.sat.i32(i32 %27, i32 %35)
  %37 = getelementptr inbounds nuw i8, ptr %.12942, i64 4
  store i32 %36, ptr %.12942, align 4, !tbaa !1099
  %indvars.iv.next = add nuw nsw i64 %indvars.iv, 1
  %38 = getelementptr inbounds nuw i8, ptr %.144, i64 8
  %exitcond55.not = icmp eq i64 %indvars.iv.next, %wide.trip.count
  br i1 %exitcond55.not, label %._crit_edge, label %.lr.ph45, !llvm.loop !1108

._crit_edge:                                      ; preds = %.lr.ph45, %.preheader
  %.129.lcssa = phi ptr [ %.028.lcssa, %.preheader ], [ %37, %.lr.ph45 ]
  %.127.lcssa = phi i32 [ %.026.lcssa, %.preheader ], [ %6, %.lr.ph45 ]
  %.not = icmp slt i32 %.127.lcssa, %7
  br i1 %.not, label %39, label %.loopexit

39:                                               ; preds = %._crit_edge
  %40 = zext nneg i32 %7 to i64
  %41 = getelementptr i32, ptr %2, i64 %40
  %42 = getelementptr i8, ptr %41, i64 -4
  %43 = load i32, ptr %42, align 4, !tbaa !16
  %44 = sext i32 %43 to i64
  %45 = getelementptr inbounds i16, ptr %0, i64 %44
  %46 = load i16, ptr %45, align 2, !tbaa !70
  %47 = zext i16 %46 to i32
  %48 = shl nuw i32 %47, 16
  br label %49

49:                                               ; preds = %39, %49
  %.249 = phi i32 [ %.127.lcssa, %39 ], [ %51, %49 ]
  %.23048 = phi ptr [ %.129.lcssa, %39 ], [ %50, %49 ]
  %50 = getelementptr inbounds nuw i8, ptr %.23048, i64 4
  store i32 %48, ptr %.23048, align 4, !tbaa !1099
  %51 = add nuw nsw i32 %.249, 1
  %exitcond56.not = icmp eq i32 %51, %7
  br i1 %exitcond56.not, label %.loopexit, label %49, !llvm.loop !1109

.loopexit:                                        ; preds = %49, %._crit_edge
  ret void
}